; Function Attrs: nounwind uwtable
define void @phpdbg_hit_breakpoint(ptr noundef %0, i1 noundef zeroext %1) local_unnamed_addr #1 {
  %3 = getelementptr inbounds i8, ptr %0, i64 8
  %4 = load i64, ptr %3, align 8
  %5 = add i64 %4, 1
  store i64 %5, ptr %3, align 8
  br i1 %1, label %6, label %7

6:                                                ; preds = %2
  tail call void @phpdbg_print_breakpoint(ptr noundef nonnull %0)
  br label %7

7:                                                ; preds = %6, %2
  ret void
}